target datalayout = "e-m:e-p270:32:32-p271:32:32-p272:64:64-i64:64-i128:128-f80:128-n8:16:32:64-S128"
target triple = "x86_64-pc-linux-gnu"

; Function Attrs: nounwind uwtable
define void @png_save_uint_32(ptr noundef %0, i32 noundef %1) #0 {
  %3 = alloca ptr, align 8
  %4 = alloca i32, align 4
  store ptr %0, ptr %3, align 8, !tbaa !3
  store i32 %1, ptr %4, align 4, !tbaa !8
  %5 = load i32, ptr %4, align 4, !tbaa !8
  %6 = lshr i32 %5, 24
  %7 = and i32 %6, 255
  %8 = trunc i32 %7 to i8
  %9 = load ptr, ptr %3, align 8, !tbaa !3
  %10 = getelementptr inbounds i8, ptr %9, i64 0
  store i8 %8, ptr %10, align 1, !tbaa !10
  %11 = load i32, ptr %4, align 4, !tbaa !8
  %12 = lshr i32 %11, 16
  %13 = and i32 %12, 255
  %14 = trunc i32 %13 to i8
  %15 = load ptr, ptr %3, align 8, !tbaa !3
  %16 = getelementptr inbounds i8, ptr %15, i64 1
  store i8 %14, ptr %16, align 1, !tbaa !10
  %17 = load i32, ptr %4, align 4, !tbaa !8
  %18 = lshr i32 %17, 8
  %19 = and i32 %18, 255
  %20 = trunc i32 %19 to i8
  %21 = load ptr, ptr %3, align 8, !tbaa !3
  %22 = getelementptr inbounds i8, ptr %21, i64 2
  store i8 %20, ptr %22, align 1, !tbaa !10
  %23 = load i32, ptr %4, align 4, !tbaa !8
  %24 = and i32 %23, 255
  %25 = trunc i32 %24 to i8
  %26 = load ptr, ptr %3, align 8, !tbaa !3
  %27 = getelementptr inbounds i8, ptr %26, i64 3
  store i8 %25, ptr %27, align 1, !tbaa !10
  ret void
}

; Function Attrs: nounwind uwtable
define void @png_save_uint_16(ptr noundef %0, i32 noundef %1) #0 {
  %3 = alloca ptr, align 8
  %4 = alloca i32, align 4
  store ptr %0, ptr %3, align 8, !tbaa !3
  store i32 %1, ptr %4, align 4, !tbaa !8
  %5 = load i32, ptr %4, align 4, !tbaa !8
  %6 = lshr i32 %5, 8
  %7 = and i32 %6, 255
  %8 = trunc i32 %7 to i8
  %9 = load ptr, ptr %3, align 8, !tbaa !3
  %10 = getelementptr inbounds i8, ptr %9, i64 0
  store i8 %8, ptr %10, align 1, !tbaa !10
  %11 = load i32, ptr %4, align 4, !tbaa !8
  %12 = and i32 %11, 255
  %13 = trunc i32 %12 to i8
  %14 = load ptr, ptr %3, align 8, !tbaa !3
  %15 = getelementptr inbounds i8, ptr %14, i64 1
  store i8 %13, ptr %15, align 1, !tbaa !10
  ret void
}

; Function Attrs: nounwind uwtable
define void @png_write_mDCV_fixed(ptr noalias noundef %0, i16 noundef zeroext %1, i16 noundef zeroext %2, i16 noundef zeroext %3, i16 noundef zeroext %4, i16 noundef zeroext %5, i16 noundef zeroext %6, i16 noundef zeroext %7, i16 noundef zeroext %8, i32 noundef %9, i32 noundef %10) #0 {
  %12 = alloca ptr, align 8
  %13 = alloca i16, align 2
  %14 = alloca i16, align 2
  %15 = alloca i16, align 2
  %16 = alloca i16, align 2
  %17 = alloca i16, align 2
  %18 = alloca i16, align 2
  %19 = alloca i16, align 2
  %20 = alloca i16, align 2
  %21 = alloca i32, align 4
  %22 = alloca i32, align 4
  %23 = alloca [24 x i8], align 16
  store ptr %0, ptr %12, align 8, !tbaa !11
  store i16 %1, ptr %13, align 2, !tbaa !134
  store i16 %2, ptr %14, align 2, !tbaa !134
  store i16 %3, ptr %15, align 2, !tbaa !134
  store i16 %4, ptr %16, align 2, !tbaa !134
  store i16 %5, ptr %17, align 2, !tbaa !134
  store i16 %6, ptr %18, align 2, !tbaa !134
  store i16 %7, ptr %19, align 2, !tbaa !134
  store i16 %8, ptr %20, align 2, !tbaa !134
  store i32 %9, ptr %21, align 4, !tbaa !8
  store i32 %10, ptr %22, align 4, !tbaa !8
  call void @llvm.lifetime.start.p0(i64 24, ptr %23) #7
  %24 = getelementptr inbounds [24 x i8], ptr %23, i64 0, i64 0
  %25 = getelementptr inbounds i8, ptr %24, i64 0
  %26 = load i16, ptr %13, align 2, !tbaa !134
  %27 = zext i16 %26 to i32
  call void @png_save_uint_16(ptr noundef %25, i32 noundef %27)
  %28 = getelementptr inbounds [24 x i8], ptr %23, i64 0, i64 0
  %29 = getelementptr inbounds i8, ptr %28, i64 2
  %30 = load i16, ptr %14, align 2, !tbaa !134
  %31 = zext i16 %30 to i32
  call void @png_save_uint_16(ptr noundef %29, i32 noundef %31)
  %32 = getelementptr inbounds [24 x i8], ptr %23, i64 0, i64 0
  %33 = getelementptr inbounds i8, ptr %32, i64 4
  %34 = load i16, ptr %15, align 2, !tbaa !134
  %35 = zext i16 %34 to i32
  call void @png_save_uint_16(ptr noundef %33, i32 noundef %35)
  %36 = getelementptr inbounds [24 x i8], ptr %23, i64 0, i64 0
  %37 = getelementptr inbounds i8, ptr %36, i64 6
  %38 = load i16, ptr %16, align 2, !tbaa !134
  %39 = zext i16 %38 to i32
  call void @png_save_uint_16(ptr noundef %37, i32 noundef %39)
  %40 = getelementptr inbounds [24 x i8], ptr %23, i64 0, i64 0
  %41 = getelementptr inbounds i8, ptr %40, i64 8
  %42 = load i16, ptr %17, align 2, !tbaa !134
  %43 = zext i16 %42 to i32
  call void @png_save_uint_16(ptr noundef %41, i32 noundef %43)
  %44 = getelementptr inbounds [24 x i8], ptr %23, i64 0, i64 0
  %45 = getelementptr inbounds i8, ptr %44, i64 10
  %46 = load i16, ptr %18, align 2, !tbaa !134
  %47 = zext i16 %46 to i32
  call void @png_save_uint_16(ptr noundef %45, i32 noundef %47)
  %48 = getelementptr inbounds [24 x i8], ptr %23, i64 0, i64 0
  %49 = getelementptr inbounds i8, ptr %48, i64 12
  %50 = load i16, ptr %19, align 2, !tbaa !134
  %51 = zext i16 %50 to i32
  call void @png_save_uint_16(ptr noundef %49, i32 noundef %51)
  %52 = getelementptr inbounds [24 x i8], ptr %23, i64 0, i64 0
  %53 = getelementptr inbounds i8, ptr %52, i64 14
  %54 = load i16, ptr %20, align 2, !tbaa !134
  %55 = zext i16 %54 to i32
  call void @png_save_uint_16(ptr noundef %53, i32 noundef %55)
  %56 = getelementptr inbounds [24 x i8], ptr %23, i64 0, i64 0
  %57 = getelementptr inbounds i8, ptr %56, i64 16
  %58 = load i32, ptr %21, align 4, !tbaa !8
  call void @png_save_uint_32(ptr noundef %57, i32 noundef %58)
  %59 = getelementptr inbounds [24 x i8], ptr %23, i64 0, i64 0
  %60 = getelementptr inbounds i8, ptr %59, i64 20
  %61 = load i32, ptr %22, align 4, !tbaa !8
  call void @png_save_uint_32(ptr noundef %60, i32 noundef %61)
  %62 = load ptr, ptr %12, align 8, !tbaa !11
  %63 = getelementptr inbounds [24 x i8], ptr %23, i64 0, i64 0
  call void @png_write_complete_chunk(ptr noundef %62, i32 noundef 1833190230, ptr noundef %63, i64 noundef 24)
  call void @llvm.lifetime.end.p0(i64 24, ptr %23) #7
  ret void
}