; Function Attrs: nounwind uwtable
define void @png_write_mDCV_fixed(ptr noalias noundef %0, i16 noundef zeroext %1, i16 noundef zeroext %2, i16 noundef zeroext %3, i16 noundef zeroext %4, i16 noundef zeroext %5, i16 noundef zeroext %6, i16 noundef zeroext %7, i16 noundef zeroext %8, i32 noundef %9, i32 noundef %10) local_unnamed_addr #1 {
  %12 = alloca [24 x i8], align 16
  call void @llvm.lifetime.start.p0(i64 24, ptr nonnull %12) #12
  %13 = lshr i16 %1, 8
  %14 = trunc nuw i16 %13 to i8
  store i8 %14, ptr %12, align 16, !tbaa !3
  %15 = trunc i16 %1 to i8
  %16 = getelementptr inbounds nuw i8, ptr %12, i64 1
  store i8 %15, ptr %16, align 1, !tbaa !3
  %17 = getelementptr inbounds nuw i8, ptr %12, i64 2
  %18 = lshr i16 %2, 8
  %19 = trunc nuw i16 %18 to i8
  store i8 %19, ptr %17, align 2, !tbaa !3
  %20 = trunc i16 %2 to i8
  %21 = getelementptr inbounds nuw i8, ptr %12, i64 3
  store i8 %20, ptr %21, align 1, !tbaa !3
  %22 = getelementptr inbounds nuw i8, ptr %12, i64 4
  %23 = lshr i16 %3, 8
  %24 = trunc nuw i16 %23 to i8
  store i8 %24, ptr %22, align 4, !tbaa !3
  %25 = trunc i16 %3 to i8
  %26 = getelementptr inbounds nuw i8, ptr %12, i64 5
  store i8 %25, ptr %26, align 1, !tbaa !3
  %27 = getelementptr inbounds nuw i8, ptr %12, i64 6
  %28 = lshr i16 %4, 8
  %29 = trunc nuw i16 %28 to i8
  store i8 %29, ptr %27, align 2, !tbaa !3
  %30 = trunc i16 %4 to i8
  %31 = getelementptr inbounds nuw i8, ptr %12, i64 7
  store i8 %30, ptr %31, align 1, !tbaa !3
  %32 = getelementptr inbounds nuw i8, ptr %12, i64 8
  %33 = lshr i16 %5, 8
  %34 = trunc nuw i16 %33 to i8
  store i8 %34, ptr %32, align 8, !tbaa !3
  %35 = trunc i16 %5 to i8
  %36 = getelementptr inbounds nuw i8, ptr %12, i64 9
  store i8 %35, ptr %36, align 1, !tbaa !3
  %37 = getelementptr inbounds nuw i8, ptr %12, i64 10
  %38 = lshr i16 %6, 8
  %39 = trunc nuw i16 %38 to i8
  store i8 %39, ptr %37, align 2, !tbaa !3
  %40 = trunc i16 %6 to i8
  %41 = getelementptr inbounds nuw i8, ptr %12, i64 11
  store i8 %40, ptr %41, align 1, !tbaa !3
  %42 = getelementptr inbounds nuw i8, ptr %12, i64 12
  %43 = lshr i16 %7, 8
  %44 = trunc nuw i16 %43 to i8
  store i8 %44, ptr %42, align 4, !tbaa !3
  %45 = trunc i16 %7 to i8
  %46 = getelementptr inbounds nuw i8, ptr %12, i64 13
  store i8 %45, ptr %46, align 1, !tbaa !3
  %47 = getelementptr inbounds nuw i8, ptr %12, i64 14
  %48 = lshr i16 %8, 8
  %49 = trunc nuw i16 %48 to i8
  store i8 %49, ptr %47, align 2, !tbaa !3
  %50 = trunc i16 %8 to i8
  %51 = getelementptr inbounds nuw i8, ptr %12, i64 15
  store i8 %50, ptr %51, align 1, !tbaa !3
  %52 = getelementptr inbounds nuw i8, ptr %12, i64 16
  %53 = lshr i32 %9, 24
  %54 = trunc nuw i32 %53 to i8
  store i8 %54, ptr %52, align 16, !tbaa !3
  %55 = lshr i32 %9, 16
  %56 = trunc i32 %55 to i8
  %57 = getelementptr inbounds nuw i8, ptr %12, i64 17
  store i8 %56, ptr %57, align 1, !tbaa !3
  %58 = lshr i32 %9, 8
  %59 = trunc i32 %58 to i8
  %60 = getelementptr inbounds nuw i8, ptr %12, i64 18
  store i8 %59, ptr %60, align 2, !tbaa !3
  %61 = trunc i32 %9 to i8
  %62 = getelementptr inbounds nuw i8, ptr %12, i64 19
  store i8 %61, ptr %62, align 1, !tbaa !3
  %63 = getelementptr inbounds nuw i8, ptr %12, i64 20
  %64 = lshr i32 %10, 24
  %65 = trunc nuw i32 %64 to i8
  store i8 %65, ptr %63, align 4, !tbaa !3
  %66 = lshr i32 %10, 16
  %67 = trunc i32 %66 to i8
  %68 = getelementptr inbounds nuw i8, ptr %12, i64 21
  store i8 %67, ptr %68, align 1, !tbaa !3
  %69 = lshr i32 %10, 8
  %70 = trunc i32 %69 to i8
  %71 = getelementptr inbounds nuw i8, ptr %12, i64 22
  store i8 %70, ptr %71, align 2, !tbaa !3
  %72 = trunc i32 %10 to i8
  %73 = getelementptr inbounds nuw i8, ptr %12, i64 23
  store i8 %72, ptr %73, align 1, !tbaa !3
  call fastcc void @png_write_complete_chunk(ptr noundef %0, i32 noundef 1833190230, ptr noundef nonnull %12, i64 noundef 24)
  call void @llvm.lifetime.end.p0(i64 24, ptr nonnull %12) #12
  ret void
}